; Function Attrs: nounwind uwtable
define dso_local noundef ptr @initArrayResultWithSize(i32 noundef %0, ptr noundef %1, i1 noundef zeroext %2, i32 noundef %3) local_unnamed_addr #0 {
  br i1 %2, label %5, label %7

5:                                                ; preds = %4
  %6 = tail call ptr @AllocSetContextCreateInternal(ptr noundef %1, ptr noundef nonnull @.str.35, i64 noundef 0, i64 noundef 8192, i64 noundef 8388608) #18
  br label %7

7:                                                ; preds = %5, %4
  %.0 = phi ptr [ %6, %5 ], [ %1, %4 ]
  %8 = zext i1 %2 to i8
  %9 = tail call ptr @MemoryContextAlloc(ptr noundef %.0, i64 noundef 48) #18
  store ptr %.0, ptr %9, align 8
  %10 = getelementptr inbounds nuw i8, ptr %9, i64 40
  store i8 %8, ptr %10, align 8
  %11 = getelementptr inbounds nuw i8, ptr %9, i64 24
  store i32 %3, ptr %11, align 8
  %12 = sext i32 %3 to i64
  %13 = shl nsw i64 %12, 3
  %14 = tail call ptr @MemoryContextAlloc(ptr noundef %.0, i64 noundef %13) #18
  %15 = getelementptr inbounds nuw i8, ptr %9, i64 8
  store ptr %14, ptr %15, align 8
  %16 = load i32, ptr %11, align 8
  %17 = sext i32 %16 to i64
  %18 = tail call ptr @MemoryContextAlloc(ptr noundef %.0, i64 noundef %17) #18
  %19 = getelementptr inbounds nuw i8, ptr %9, i64 16
  store ptr %18, ptr %19, align 8
  %20 = getelementptr inbounds nuw i8, ptr %9, i64 28
  store i32 0, ptr %20, align 4
  %21 = getelementptr inbounds nuw i8, ptr %9, i64 32
  store i32 %0, ptr %21, align 8
  %22 = getelementptr inbounds nuw i8, ptr %9, i64 36
  %23 = getelementptr inbounds nuw i8, ptr %9, i64 38
  %24 = getelementptr inbounds nuw i8, ptr %9, i64 39
  tail call void @get_typlenbyvalalign(i32 noundef %0, ptr noundef nonnull %22, ptr noundef nonnull %23, ptr noundef nonnull %24) #18
  ret ptr %9
}